target datalayout = "e-m:e-p270:32:32-p271:32:32-p272:64:64-i64:64-i128:128-f80:128-n8:16:32:64-S128"
target triple = "x86_64-pc-linux-gnu"

@rb_eTypeError = external global i64, align 8
@.str.26 = private unnamed_addr constant [40 x i8] c"Can not set autoload on singleton class\00", align 1

; Function Attrs: nounwind sspstrong uwtable
define internal i64 @rb_mod_autoload(i64 noundef %0, i64 noundef %1, i64 noundef %2) #0 {
  %4 = alloca i64, align 8
  %5 = alloca i64, align 8
  %6 = alloca i64, align 8
  %7 = alloca i64, align 8
  %8 = alloca ptr, align 8
  %9 = alloca ptr, align 8
  store i64 %0, ptr %4, align 8, !tbaa !12
  store i64 %1, ptr %5, align 8, !tbaa !12
  store i64 %2, ptr %6, align 8, !tbaa !12
  call void @llvm.lifetime.start.p0(i64 8, ptr %7) #8
  %10 = load i64, ptr %5, align 8, !tbaa !12
  %11 = call i64 @rb_to_id(i64 noundef %10)
  store i64 %11, ptr %7, align 8, !tbaa !12
  %12 = load i64, ptr %6, align 8, !tbaa !12
  %13 = call i64 @rb_get_path(i64 noundef %12)
  call void @llvm.lifetime.start.p0(i64 8, ptr %8) #8
  store ptr %6, ptr %8, align 8, !tbaa !48
  call void asm sideeffect "", "*m,~{dirflag},~{fpsr},~{flags}"(ptr elementtype(ptr) %8) #8, !srcloc !137
  %14 = load ptr, ptr %8, align 8, !tbaa !48
  store ptr %14, ptr %9, align 8, !tbaa !48
  call void @llvm.lifetime.end.p0(i64 8, ptr %8) #8
  %15 = load ptr, ptr %9, align 8, !tbaa !48
  store volatile i64 %13, ptr %15, align 8, !tbaa !12
  %16 = load i64, ptr %4, align 8, !tbaa !12
  %17 = load i64, ptr %7, align 8, !tbaa !12
  %18 = load i64, ptr %6, align 8, !tbaa !12
  call void @rb_autoload_str(i64 noundef %16, i64 noundef %17, i64 noundef %18)
  call void @llvm.lifetime.end.p0(i64 8, ptr %7) #8
  ret i64 4
}

; Function Attrs: nounwind sspstrong uwtable
define internal i64 @rb_f_autoload(i64 noundef %0, i64 noundef %1, i64 noundef %2) #0 {
  %4 = alloca i64, align 8
  %5 = alloca i64, align 8
  %6 = alloca i64, align 8
  %7 = alloca i64, align 8
  store i64 %0, ptr %4, align 8, !tbaa !12
  store i64 %1, ptr %5, align 8, !tbaa !12
  store i64 %2, ptr %6, align 8, !tbaa !12
  call void @llvm.lifetime.start.p0(i64 8, ptr %7) #8
  %8 = call i64 @rb_vm_cbase()
  %9 = call i64 @rb_class_real(i64 noundef %8) #29
  store i64 %9, ptr %7, align 8, !tbaa !12
  %10 = load i64, ptr %7, align 8, !tbaa !12
  %11 = icmp ne i64 %10, 0
  br i1 %11, label %14, label %12

12:                                               ; preds = %3
  %13 = load i64, ptr @rb_eTypeError, align 8, !tbaa !12
  call void (i64, ptr, ...) @rb_raise(i64 noundef %13, ptr noundef @.str.26) #31
  unreachable

14:                                               ; preds = %3
  %15 = load i64, ptr %7, align 8, !tbaa !12
  %16 = load i64, ptr %5, align 8, !tbaa !12
  %17 = load i64, ptr %6, align 8, !tbaa !12
  %18 = call i64 @rb_mod_autoload(i64 noundef %15, i64 noundef %16, i64 noundef %17)
  call void @llvm.lifetime.end.p0(i64 8, ptr %7) #8
  ret i64 %18
}