; Function Attrs: nounwind sspstrong uwtable
define internal noundef i64 @rb_f_autoload(i64 %0, i64 noundef %1, i64 noundef %2) #0 {
  %4 = alloca i64, align 8
  %5 = alloca ptr, align 8
  %6 = tail call i64 @rb_vm_cbase() #7
  %7 = tail call i64 @rb_class_real(i64 noundef %6) #25
  %.not = icmp eq i64 %7, 0
  br i1 %.not, label %8, label %10

8:                                                ; preds = %3
  %9 = load i64, ptr @rb_eTypeError, align 8, !tbaa !42
  tail call void (i64, ptr, ...) @rb_raise(i64 noundef %9, ptr noundef nonnull @.str.26) #21
  unreachable

10:                                               ; preds = %3
  call void @llvm.lifetime.start.p0(i64 8, ptr nonnull %4)
  store i64 %2, ptr %4, align 8, !tbaa !42
  %11 = tail call i64 @rb_to_id(i64 noundef %1) #7
  %12 = tail call i64 @rb_get_path(i64 noundef %2) #7
  call void @llvm.lifetime.start.p0(i64 8, ptr nonnull %5) #7
  store ptr %4, ptr %5, align 8, !tbaa !49
  call void asm sideeffect "", "*m,~{dirflag},~{fpsr},~{flags}"(ptr nonnull elementtype(ptr) %5) #7, !srcloc !198
  %13 = load ptr, ptr %5, align 8, !tbaa !49
  call void @llvm.lifetime.end.p0(i64 8, ptr nonnull %5) #7
  store volatile i64 %12, ptr %13, align 8, !tbaa !42
  %14 = load i64, ptr %4, align 8, !tbaa !42
  call void @rb_autoload_str(i64 noundef %7, i64 noundef %11, i64 noundef %14) #7
  call void @llvm.lifetime.end.p0(i64 8, ptr nonnull %4)
  ret i64 4
}